Certificate:
    Data:
        Version: 3 (0x2)
        Serial Number:
            21:1a:b1:d6:e9:30:cb:f5:42:16:d9:4a:e8:21:ab:d7
    Signature Algorithm: sha256WithRSAEncryption
        Issuer: CN=along
        Validity
            Not Before: Jul 16 16:21:05 2021 GMT
            Not After : Oct 19 16:21:05 2023 GMT
        Subject: CN=along521
        Subject Public Key Info:
            Public Key Algorithm: rsaEncryption
                Public-Key: (2048 bit)
                Modulus:
                    00:c8:44:77:58:92:54:1a:8e:73:d9:27:f8:98:ad:
                    09:43:02:03:4f:82:02:75:ad:d2:f6:6b:05:30:d2:
                    f4:3a:6d:0f:06:e1:b4:90:0a:63:ff:0c:3a:d6:77:
                    2b:36:c8:f6:96:57:7d:49:20:00:39:98:ab:56:5b:
                    72:84:0a:67:ee:24:36:b1:82:24:36:6d:65:dc:47:
                    cd:57:c5:1d:32:41:70:5e:99:53:9b:d7:62:1d:ba:
                    95:fd:36:f0:f7:36:80:82:c7:3d:16:15:ce:d8:f8:
                    61:16:1f:3b:48:fe:1a:13:60:81:2b:a6:5c:de:f6:
                    9a:57:74:0b:95:0d:67:12:52:4d:57:1c:c2:5b:5c:
                    a4:ce:a0:2d:e1:eb:58:84:12:df:c4:9e:a5:22:12:
                    38:97:b9:e8:3f:03:f7:1e:56:d5:5c:05:1e:75:04:
                    f3:68:d9:62:57:ab:bf:2e:e5:9f:a6:19:df:80:8f:
                    43:74:31:5a:68:05:5f:2b:6a:6b:65:79:95:2d:55:
                    3b:ca:db:43:18:95:17:97:e6:77:5a:ab:8f:ae:7b:
                    ba:a4:83:10:b8:84:57:a6:ec:d7:8d:11:d6:d9:d8:
                    d7:17:c8:72:cd:b4:d2:39:fb:23:c1:20:6c:d1:33:
                    f7:2f:37:a7:d5:6b:a4:5d:52:db:ac:6d:46:e6:2f:
                    6d:0d
                Exponent: 65537 (0x10001)
        X509v3 extensions:
            X509v3 Basic Constraints: 
                CA:FALSE
            X509v3 Subject Key Identifier: 
                72:4B:05:97:30:3C:E1:C5:E5:72:42:22:88:11:A2:1C:1D:7F:D7:89
            X509v3 Authority Key Identifier: 
                keyid:D8:51:BB:75:FE:5B:65:9F:F3:62:08:1F:F5:95:44:1A:A8:A9:DA:1D
                DirName:/CN=along
                serial:B8:ED:CD:68:35:69:C6:61

            X509v3 Extended Key Usage: 
                TLS Web Server Authentication
            X509v3 Key Usage: 
                Digital Signature, Key Encipherment
            X509v3 Subject Alternative Name: 
                DNS:along521
    Signature Algorithm: sha256WithRSAEncryption
         47:c3:38:80:6e:47:a8:50:e7:cb:20:78:58:08:a2:b3:0b:5f:
         cc:b4:0b:93:07:d3:55:09:d2:41:ed:81:89:6f:1d:2f:fe:16:
         27:35:29:82:91:a0:9a:7e:20:10:ba:2c:a6:22:65:cf:21:d4:
         94:4b:64:6b:16:e1:54:06:8c:9e:73:97:69:4c:ed:1d:b5:61:
         6c:45:15:e6:56:4f:73:12:74:32:4a:6d:a5:e8:a6:27:89:c7:
         8d:88:e9:ba:e4:85:76:f7:ae:d8:ac:38:08:d7:84:17:07:9c:
         03:ae:2a:56:d3:35:d9:46:cb:23:f3:22:46:48:08:54:d1:7a:
         d9:5e:b3:71:71:09:43:fe:86:86:a7:dc:20:cd:28:f0:7e:0e:
         2d:98:2f:8b:01:55:78:09:75:a1:56:c7:9e:91:3c:50:9d:0d:
         6c:a7:57:cc:1d:1c:95:28:a6:f5:a7:81:0c:fd:eb:2e:9e:eb:
         dc:e5:d2:47:b7:dc:01:25:f1:3d:87:c2:42:4e:1a:8f:12:62:
         26:9e:84:93:f7:22:b6:ef:18:30:5d:3f:03:e9:43:b0:90:1b:
         1a:6f:e2:6c:11:28:d6:22:f4:26:c4:01:0c:7f:d4:10:81:f9:
         ae:18:ca:10:e5:73:1f:f5:3b:22:ce:69:32:fe:cd:22:89:f1:
         a1:4f:d4:07
-----BEGIN CERTIFICATE-----
MIIDVDCCAjygAwIBAgIQIRqx1ukwy/VCFtlK6CGr1zANBgkqhkiG9w0BAQsFADAQ
MQ4wDAYDVQQDDAVhbG9uZzAeFw0yMTA3MTYxNjIxMDVaFw0yMzEwMTkxNjIxMDVa
MBMxETAPBgNVBAMMCGFsb25nNTIxMIIBIjANBgkqhkiG9w0BAQEFAAOCAQ8AMIIB
CgKCAQEAyER3WJJUGo5z2Sf4mK0JQwIDT4ICda3S9msFMNL0Om0PBuG0kApj/ww6
1ncrNsj2lld9SSAAOZirVltyhApn7iQ2sYIkNm1l3EfNV8UdMkFwXplTm9diHbqV
/Tbw9zaAgsc9FhXO2PhhFh87SP4aE2CBK6Zc3vaaV3QLlQ1nElJNVxzCW1ykzqAt
4etYhBLfxJ6lIhI4l7noPwP3HlbVXAUedQTzaNliV6u/LuWfphnfgI9DdDFaaAVf
K2prZXmVLVU7yttDGJUXl+Z3WquPrnu6pIMQuIRXpuzXjRHW2djXF8hyzbTSOfsj
wSBs0TP3Lzen1WukXVLbrG1G5i9tDQIDAQABo4GmMIGjMAkGA1UdEwQCMAAwHQYD
VR0OBBYEFHJLBZcwPOHF5XJCIogRohwdf9eJMEAGA1UdIwQ5MDeAFNhRu3X+W2Wf
82IIH/WVRBqoqdodoRSkEjAQMQ4wDAYDVQQDDAVhbG9uZ4IJALjtzWg1acZhMBMG
A1UdJQQMMAoGCCsGAQUFBwMBMAsGA1UdDwQEAwIFoDATBgNVHREEDDAKgghhbG9u
ZzUyMTANBgkqhkiG9w0BAQsFAAOCAQEAR8M4gG5HqFDnyyB4WAiiswtfzLQLkwfT
VQnSQe2BiW8dL/4WJzUpgpGgmn4gELospiJlzyHUlEtkaxbhVAaMnnOXaUztHbVh
bEUV5lZPcxJ0MkptpeimJ4nHjYjpuuSFdveu2Kw4CNeEFwecA64qVtM12UbLI/Mi
RkgIVNF62V6zcXEJQ/6GhqfcIM0o8H4OLZgviwFVeAl1oVbHnpE8UJ0NbKdXzB0c
lSim9aeBDP3rLp7r3OXSR7fcASXxPYfCQk4ajxJiJp6Ek/citu8YMF0/A+lDsJAb
Gm/ibBEo1iL0JsQBDH/UEIH5rhjKEOVzH/U7Is5pMv7NIonxoU/UBw==
-----END CERTIFICATE-----
